target datalayout = "e-m:e-p270:32:32-p271:32:32-p272:64:64-i64:64-i128:128-f80:128-n8:16:32:64-S128"
target triple = "x86_64-pc-linux-gnu"

%struct.BTBuildState = type { i8, i8, i8, ptr, ptr, ptr, double, ptr }
%struct.IndexInfo = type { i32, i32, i32, [32 x i16], ptr, ptr, ptr, ptr, ptr, ptr, ptr, ptr, ptr, ptr, i8, i8, i8, i8, i8, i8, i8, i8, i8, i32, i32, ptr, ptr }
%struct.RelationData = type { %struct.RelFileLocator, ptr, i32, i32, i8, i8, i8, i8, i8, i32, i32, i32, i32, ptr, ptr, i32, %struct.LockInfoData, ptr, ptr, ptr, ptr, ptr, i8, ptr, ptr, ptr, ptr, ptr, ptr, i32, ptr, i8, ptr, ptr, i32, i8, i32, ptr, i8, ptr, ptr, ptr, ptr, ptr, ptr, ptr, i32, ptr, ptr, ptr, ptr, ptr, ptr, ptr, ptr, ptr, ptr, ptr, ptr, ptr, ptr, ptr, ptr, ptr, ptr, ptr, i32, i8, ptr }
%struct.RelFileLocator = type { i32, i32, i32 }
%struct.LockInfoData = type { %struct.LockRelId }
%struct.LockRelId = type { i32, i32 }
%struct.BTSpool = type { ptr, ptr, ptr, i8, i8 }
%struct.SortCoordinateData = type { i8, i32, ptr }
%struct.BTShared = type { i32, i32, i8, i8, i8, i32, i64, %struct.ConditionVariable, i8, i32, double, i8, double, i8 }
%struct.ConditionVariable = type { i8, %struct.proclist_head }
%struct.proclist_head = type { i32, i32 }
%struct.TableAmRoutine = type { i32, ptr, ptr, ptr, ptr, ptr, ptr, ptr, ptr, ptr, ptr, ptr, ptr, ptr, ptr, ptr, ptr, ptr, ptr, ptr, ptr, ptr, ptr, ptr, ptr, ptr, ptr, ptr, ptr, ptr, ptr, ptr, ptr, ptr, ptr, ptr, ptr, ptr, ptr, ptr, ptr, ptr, ptr, ptr, ptr, ptr }

@.str.1 = private unnamed_addr constant [10 x i8] c"nbtsort.c\00", align 1
@work_mem = external global i32, align 4
@__func__._bt_parallel_scan_and_sort = private unnamed_addr constant [27 x i8] c"_bt_parallel_scan_and_sort\00", align 1

; Function Attrs: inlinehint nounwind uwtable
define internal i32 @tas(ptr noundef %0) #4 {
  %2 = alloca ptr, align 8
  %3 = alloca i8, align 1
  store ptr %0, ptr %2, align 8
  call void @llvm.lifetime.start.p0(i64 1, ptr %3) #8
  store i8 1, ptr %3, align 1
  %4 = load i8, ptr %3, align 1
  %5 = load ptr, ptr %2, align 8
  %6 = call i8 asm sideeffect "\09lock\09\09\09\0A\09xchgb\09$0,$1\09\0A", "=q,=*m,0,*m,~{memory},~{cc},~{dirflag},~{fpsr},~{flags}"(ptr elementtype(i8) %5, i8 %4, ptr elementtype(i8) %5) #8, !srcloc !12
  store i8 %6, ptr %3, align 1
  %7 = load i8, ptr %3, align 1
  %8 = zext i8 %7 to i32
  call void @llvm.lifetime.end.p0(i64 1, ptr %3) #8
  ret i32 %8
}

; Function Attrs: inlinehint nounwind uwtable
define internal double @table_index_build_scan(ptr noundef %0, ptr noundef %1, ptr noundef %2, i1 noundef zeroext %3, i1 noundef zeroext %4, ptr noundef %5, ptr noundef %6, ptr noundef %7) #4 {
  %9 = alloca ptr, align 8
  %10 = alloca ptr, align 8
  %11 = alloca ptr, align 8
  %12 = alloca i8, align 1
  %13 = alloca i8, align 1
  %14 = alloca ptr, align 8
  %15 = alloca ptr, align 8
  %16 = alloca ptr, align 8
  store ptr %0, ptr %9, align 8
  store ptr %1, ptr %10, align 8
  store ptr %2, ptr %11, align 8
  %17 = zext i1 %3 to i8
  store i8 %17, ptr %12, align 1
  %18 = zext i1 %4 to i8
  store i8 %18, ptr %13, align 1
  store ptr %5, ptr %14, align 8
  store ptr %6, ptr %15, align 8
  store ptr %7, ptr %16, align 8
  %19 = load ptr, ptr %9, align 8
  %20 = getelementptr inbounds nuw %struct.RelationData, ptr %19, i32 0, i32 47
  %21 = load ptr, ptr %20, align 8
  %22 = getelementptr inbounds nuw %struct.TableAmRoutine, ptr %21, i32 0, i32 35
  %23 = load ptr, ptr %22, align 8
  %24 = load ptr, ptr %9, align 8
  %25 = load ptr, ptr %10, align 8
  %26 = load ptr, ptr %11, align 8
  %27 = load i8, ptr %12, align 1, !range !4, !noundef !5
  %28 = trunc i8 %27 to i1
  %29 = load i8, ptr %13, align 1, !range !4, !noundef !5
  %30 = trunc i8 %29 to i1
  %31 = load ptr, ptr %14, align 8
  %32 = load ptr, ptr %15, align 8
  %33 = load ptr, ptr %16, align 8
  %34 = call double %23(ptr noundef %24, ptr noundef %25, ptr noundef %26, i1 noundef zeroext %28, i1 noundef zeroext false, i1 noundef zeroext %30, i32 noundef 0, i32 noundef -1, ptr noundef %31, ptr noundef %32, ptr noundef %33)
  ret double %34
}

; Function Attrs: nounwind uwtable
define internal void @_bt_parallel_scan_and_sort(ptr noundef %0, ptr noundef %1, ptr noundef %2, ptr noundef %3, ptr noundef %4, i32 noundef %5, i1 noundef zeroext %6) #0 {
  %8 = alloca ptr, align 8
  %9 = alloca ptr, align 8
  %10 = alloca ptr, align 8
  %11 = alloca ptr, align 8
  %12 = alloca ptr, align 8
  %13 = alloca i32, align 4
  %14 = alloca i8, align 1
  %15 = alloca ptr, align 8
  %16 = alloca %struct.BTBuildState, align 8
  %17 = alloca ptr, align 8
  %18 = alloca double, align 8
  %19 = alloca ptr, align 8
  %20 = alloca ptr, align 8
  store ptr %0, ptr %8, align 8
  store ptr %1, ptr %9, align 8
  store ptr %2, ptr %10, align 8
  store ptr %3, ptr %11, align 8
  store ptr %4, ptr %12, align 8
  store i32 %5, ptr %13, align 4
  %21 = zext i1 %6 to i8
  store i8 %21, ptr %14, align 1
  call void @llvm.lifetime.start.p0(i64 8, ptr %15) #8
  call void @llvm.lifetime.start.p0(i64 48, ptr %16) #8
  call void @llvm.lifetime.start.p0(i64 8, ptr %17) #8
  call void @llvm.lifetime.start.p0(i64 8, ptr %18) #8
  call void @llvm.lifetime.start.p0(i64 8, ptr %19) #8
  %22 = call ptr @palloc0(i64 noundef 16)
  store ptr %22, ptr %15, align 8
  %23 = load ptr, ptr %15, align 8
  %24 = getelementptr inbounds nuw %struct.SortCoordinateData, ptr %23, i32 0, i32 0
  store i8 1, ptr %24, align 8
  %25 = load ptr, ptr %15, align 8
  %26 = getelementptr inbounds nuw %struct.SortCoordinateData, ptr %25, i32 0, i32 1
  store i32 -1, ptr %26, align 4
  %27 = load ptr, ptr %11, align 8
  %28 = load ptr, ptr %15, align 8
  %29 = getelementptr inbounds nuw %struct.SortCoordinateData, ptr %28, i32 0, i32 2
  store ptr %27, ptr %29, align 8
  %30 = load ptr, ptr %8, align 8
  %31 = getelementptr inbounds nuw %struct.BTSpool, ptr %30, i32 0, i32 1
  %32 = load ptr, ptr %31, align 8
  %33 = load ptr, ptr %8, align 8
  %34 = getelementptr inbounds nuw %struct.BTSpool, ptr %33, i32 0, i32 2
  %35 = load ptr, ptr %34, align 8
  %36 = load ptr, ptr %8, align 8
  %37 = getelementptr inbounds nuw %struct.BTSpool, ptr %36, i32 0, i32 3
  %38 = load i8, ptr %37, align 8, !range !4, !noundef !5
  %39 = trunc i8 %38 to i1
  %40 = load ptr, ptr %8, align 8
  %41 = getelementptr inbounds nuw %struct.BTSpool, ptr %40, i32 0, i32 4
  %42 = load i8, ptr %41, align 1, !range !4, !noundef !5
  %43 = trunc i8 %42 to i1
  %44 = load i32, ptr %13, align 4
  %45 = load ptr, ptr %15, align 8
  %46 = call ptr @tuplesort_begin_index_btree(ptr noundef %32, ptr noundef %35, i1 noundef zeroext %39, i1 noundef zeroext %43, i32 noundef %44, ptr noundef %45, i32 noundef 0)
  %47 = load ptr, ptr %8, align 8
  %48 = getelementptr inbounds nuw %struct.BTSpool, ptr %47, i32 0, i32 0
  store ptr %46, ptr %48, align 8
  %49 = load ptr, ptr %9, align 8
  %50 = icmp ne ptr %49, null
  br i1 %50, label %51, label %79

51:                                               ; preds = %7
  call void @llvm.lifetime.start.p0(i64 8, ptr %20) #8
  %52 = call ptr @palloc0(i64 noundef 16)
  store ptr %52, ptr %20, align 8
  %53 = load ptr, ptr %20, align 8
  %54 = getelementptr inbounds nuw %struct.SortCoordinateData, ptr %53, i32 0, i32 0
  store i8 1, ptr %54, align 8
  %55 = load ptr, ptr %20, align 8
  %56 = getelementptr inbounds nuw %struct.SortCoordinateData, ptr %55, i32 0, i32 1
  store i32 -1, ptr %56, align 4
  %57 = load ptr, ptr %12, align 8
  %58 = load ptr, ptr %20, align 8
  %59 = getelementptr inbounds nuw %struct.SortCoordinateData, ptr %58, i32 0, i32 2
  store ptr %57, ptr %59, align 8
  %60 = load ptr, ptr %8, align 8
  %61 = getelementptr inbounds nuw %struct.BTSpool, ptr %60, i32 0, i32 1
  %62 = load ptr, ptr %61, align 8
  %63 = load ptr, ptr %8, align 8
  %64 = getelementptr inbounds nuw %struct.BTSpool, ptr %63, i32 0, i32 2
  %65 = load ptr, ptr %64, align 8
  %66 = load i32, ptr %13, align 4
  %67 = load i32, ptr @work_mem, align 4
  %68 = icmp slt i32 %66, %67
  br i1 %68, label %69, label %71

69:                                               ; preds = %51
  %70 = load i32, ptr %13, align 4
  br label %73

71:                                               ; preds = %51
  %72 = load i32, ptr @work_mem, align 4
  br label %73

73:                                               ; preds = %71, %69
  %74 = phi i32 [ %70, %69 ], [ %72, %71 ]
  %75 = load ptr, ptr %20, align 8
  %76 = call ptr @tuplesort_begin_index_btree(ptr noundef %62, ptr noundef %65, i1 noundef zeroext false, i1 noundef zeroext false, i32 noundef %74, ptr noundef %75, i32 noundef 0)
  %77 = load ptr, ptr %9, align 8
  %78 = getelementptr inbounds nuw %struct.BTSpool, ptr %77, i32 0, i32 0
  store ptr %76, ptr %78, align 8
  call void @llvm.lifetime.end.p0(i64 8, ptr %20) #8
  br label %79

79:                                               ; preds = %73, %7
  %80 = load ptr, ptr %10, align 8
  %81 = getelementptr inbounds nuw %struct.BTShared, ptr %80, i32 0, i32 2
  %82 = load i8, ptr %81, align 8, !range !4, !noundef !5
  %83 = trunc i8 %82 to i1
  %84 = getelementptr inbounds nuw %struct.BTBuildState, ptr %16, i32 0, i32 0
  %85 = zext i1 %83 to i8
  store i8 %85, ptr %84, align 8
  %86 = load ptr, ptr %10, align 8
  %87 = getelementptr inbounds nuw %struct.BTShared, ptr %86, i32 0, i32 3
  %88 = load i8, ptr %87, align 1, !range !4, !noundef !5
  %89 = trunc i8 %88 to i1
  %90 = getelementptr inbounds nuw %struct.BTBuildState, ptr %16, i32 0, i32 1
  %91 = zext i1 %89 to i8
  store i8 %91, ptr %90, align 1
  %92 = getelementptr inbounds nuw %struct.BTBuildState, ptr %16, i32 0, i32 2
  store i8 0, ptr %92, align 2
  %93 = load ptr, ptr %8, align 8
  %94 = getelementptr inbounds nuw %struct.BTSpool, ptr %93, i32 0, i32 1
  %95 = load ptr, ptr %94, align 8
  %96 = getelementptr inbounds nuw %struct.BTBuildState, ptr %16, i32 0, i32 3
  store ptr %95, ptr %96, align 8
  %97 = load ptr, ptr %8, align 8
  %98 = getelementptr inbounds nuw %struct.BTBuildState, ptr %16, i32 0, i32 4
  store ptr %97, ptr %98, align 8
  %99 = load ptr, ptr %9, align 8
  %100 = getelementptr inbounds nuw %struct.BTBuildState, ptr %16, i32 0, i32 5
  store ptr %99, ptr %100, align 8
  %101 = getelementptr inbounds nuw %struct.BTBuildState, ptr %16, i32 0, i32 6
  store double 0.000000e+00, ptr %101, align 8
  %102 = getelementptr inbounds nuw %struct.BTBuildState, ptr %16, i32 0, i32 7
  store ptr null, ptr %102, align 8
  %103 = load ptr, ptr %8, align 8
  %104 = getelementptr inbounds nuw %struct.BTSpool, ptr %103, i32 0, i32 2
  %105 = load ptr, ptr %104, align 8
  %106 = call ptr @BuildIndexInfo(ptr noundef %105)
  store ptr %106, ptr %19, align 8
  %107 = load ptr, ptr %10, align 8
  %108 = getelementptr inbounds nuw %struct.BTShared, ptr %107, i32 0, i32 4
  %109 = load i8, ptr %108, align 2, !range !4, !noundef !5
  %110 = trunc i8 %109 to i1
  %111 = load ptr, ptr %19, align 8
  %112 = getelementptr inbounds nuw %struct.IndexInfo, ptr %111, i32 0, i32 19
  %113 = zext i1 %110 to i8
  store i8 %113, ptr %112, align 1
  %114 = load ptr, ptr %8, align 8
  %115 = getelementptr inbounds nuw %struct.BTSpool, ptr %114, i32 0, i32 1
  %116 = load ptr, ptr %115, align 8
  %117 = load ptr, ptr %10, align 8
  %118 = getelementptr inbounds nuw i8, ptr %117, i64 96
  %119 = call ptr @table_beginscan_parallel(ptr noundef %116, ptr noundef %118)
  store ptr %119, ptr %17, align 8
  %120 = load ptr, ptr %8, align 8
  %121 = getelementptr inbounds nuw %struct.BTSpool, ptr %120, i32 0, i32 1
  %122 = load ptr, ptr %121, align 8
  %123 = load ptr, ptr %8, align 8
  %124 = getelementptr inbounds nuw %struct.BTSpool, ptr %123, i32 0, i32 2
  %125 = load ptr, ptr %124, align 8
  %126 = load ptr, ptr %19, align 8
  %127 = load i8, ptr %14, align 1, !range !4, !noundef !5
  %128 = trunc i8 %127 to i1
  %129 = load ptr, ptr %17, align 8
  %130 = call double @table_index_build_scan(ptr noundef %122, ptr noundef %125, ptr noundef %126, i1 noundef zeroext true, i1 noundef zeroext %128, ptr noundef @_bt_build_callback, ptr noundef %16, ptr noundef %129)
  store double %130, ptr %18, align 8
  %131 = load i8, ptr %14, align 1, !range !4, !noundef !5
  %132 = trunc i8 %131 to i1
  br i1 %132, label %133, label %134

133:                                              ; preds = %79
  call void @pgstat_progress_update_param(i32 noundef 10, i64 noundef 3)
  br label %134

134:                                              ; preds = %133, %79
  %135 = load ptr, ptr %8, align 8
  %136 = getelementptr inbounds nuw %struct.BTSpool, ptr %135, i32 0, i32 0
  %137 = load ptr, ptr %136, align 8
  call void @tuplesort_performsort(ptr noundef %137)
  %138 = load ptr, ptr %9, align 8
  %139 = icmp ne ptr %138, null
  br i1 %139, label %140, label %148

140:                                              ; preds = %134
  %141 = load i8, ptr %14, align 1, !range !4, !noundef !5
  %142 = trunc i8 %141 to i1
  br i1 %142, label %143, label %144

143:                                              ; preds = %140
  call void @pgstat_progress_update_param(i32 noundef 10, i64 noundef 4)
  br label %144

144:                                              ; preds = %143, %140
  %145 = load ptr, ptr %9, align 8
  %146 = getelementptr inbounds nuw %struct.BTSpool, ptr %145, i32 0, i32 0
  %147 = load ptr, ptr %146, align 8
  call void @tuplesort_performsort(ptr noundef %147)
  br label %148

148:                                              ; preds = %144, %134
  %149 = load ptr, ptr %10, align 8
  %150 = getelementptr inbounds nuw %struct.BTShared, ptr %149, i32 0, i32 8
  %151 = call i32 @tas(ptr noundef %150)
  %152 = icmp ne i32 %151, 0
  br i1 %152, label %153, label %157

153:                                              ; preds = %148
  %154 = load ptr, ptr %10, align 8
  %155 = getelementptr inbounds nuw %struct.BTShared, ptr %154, i32 0, i32 8
  %156 = call i32 @s_lock(ptr noundef %155, ptr noundef @.str.1, i32 noundef 1952, ptr noundef @__func__._bt_parallel_scan_and_sort)
  br label %158

157:                                              ; preds = %148
  br label %158

158:                                              ; preds = %157, %153
  %159 = load ptr, ptr %10, align 8
  %160 = getelementptr inbounds nuw %struct.BTShared, ptr %159, i32 0, i32 9
  %161 = load i32, ptr %160, align 8
  %162 = add i32 %161, 1
  store i32 %162, ptr %160, align 8
  %163 = load double, ptr %18, align 8
  %164 = load ptr, ptr %10, align 8
  %165 = getelementptr inbounds nuw %struct.BTShared, ptr %164, i32 0, i32 10
  %166 = load double, ptr %165, align 8
  %167 = fadd double %166, %163
  store double %167, ptr %165, align 8
  %168 = getelementptr inbounds nuw %struct.BTBuildState, ptr %16, i32 0, i32 2
  %169 = load i8, ptr %168, align 2, !range !4, !noundef !5
  %170 = trunc i8 %169 to i1
  br i1 %170, label %171, label %174

171:                                              ; preds = %158
  %172 = load ptr, ptr %10, align 8
  %173 = getelementptr inbounds nuw %struct.BTShared, ptr %172, i32 0, i32 11
  store i8 1, ptr %173, align 8
  br label %174

174:                                              ; preds = %171, %158
  %175 = getelementptr inbounds nuw %struct.BTBuildState, ptr %16, i32 0, i32 6
  %176 = load double, ptr %175, align 8
  %177 = load ptr, ptr %10, align 8
  %178 = getelementptr inbounds nuw %struct.BTShared, ptr %177, i32 0, i32 12
  %179 = load double, ptr %178, align 8
  %180 = fadd double %179, %176
  store double %180, ptr %178, align 8
  %181 = load ptr, ptr %19, align 8
  %182 = getelementptr inbounds nuw %struct.IndexInfo, ptr %181, i32 0, i32 20
  %183 = load i8, ptr %182, align 2, !range !4, !noundef !5
  %184 = trunc i8 %183 to i1
  br i1 %184, label %185, label %188

185:                                              ; preds = %174
  %186 = load ptr, ptr %10, align 8
  %187 = getelementptr inbounds nuw %struct.BTShared, ptr %186, i32 0, i32 13
  store i8 1, ptr %187, align 8
  br label %188

188:                                              ; preds = %185, %174
  br label %189

189:                                              ; preds = %188
  call void asm sideeffect "", "~{memory},~{dirflag},~{fpsr},~{flags}"() #8, !srcloc !8
  %190 = load ptr, ptr %10, align 8
  %191 = getelementptr inbounds nuw %struct.BTShared, ptr %190, i32 0, i32 8
  store i8 0, ptr %191, align 4
  br label %192

192:                                              ; preds = %189
  br label %193

193:                                              ; preds = %192
  %194 = load ptr, ptr %10, align 8
  %195 = getelementptr inbounds nuw %struct.BTShared, ptr %194, i32 0, i32 7
  call void @ConditionVariableSignal(ptr noundef %195)
  %196 = load ptr, ptr %8, align 8
  %197 = getelementptr inbounds nuw %struct.BTSpool, ptr %196, i32 0, i32 0
  %198 = load ptr, ptr %197, align 8
  call void @tuplesort_end(ptr noundef %198)
  %199 = load ptr, ptr %9, align 8
  %200 = icmp ne ptr %199, null
  br i1 %200, label %201, label %205

201:                                              ; preds = %193
  %202 = load ptr, ptr %9, align 8
  %203 = getelementptr inbounds nuw %struct.BTSpool, ptr %202, i32 0, i32 0
  %204 = load ptr, ptr %203, align 8
  call void @tuplesort_end(ptr noundef %204)
  br label %205

205:                                              ; preds = %201, %193
  call void @llvm.lifetime.end.p0(i64 8, ptr %19) #8
  call void @llvm.lifetime.end.p0(i64 8, ptr %18) #8
  call void @llvm.lifetime.end.p0(i64 8, ptr %17) #8
  call void @llvm.lifetime.end.p0(i64 48, ptr %16) #8
  call void @llvm.lifetime.end.p0(i64 8, ptr %15) #8
  ret void
}