; Function Attrs: nounwind uwtable
define internal fastcc void @_bt_parallel_scan_and_sort(ptr noundef initializes((0, 8)) %0, ptr noundef %1, ptr noundef %2, ptr noundef %3, ptr noundef %4, i32 noundef %5, i1 noundef zeroext %6) unnamed_addr #0 {
  %8 = alloca %struct.BTBuildState, align 8
  call void @llvm.lifetime.start.p0(i64 48, ptr nonnull %8) #10
  %9 = tail call ptr @palloc0(i64 noundef 16) #10
  store i8 1, ptr %9, align 8
  %10 = getelementptr inbounds nuw i8, ptr %9, i64 4
  store i32 -1, ptr %10, align 4
  %11 = getelementptr inbounds nuw i8, ptr %9, i64 8
  store ptr %3, ptr %11, align 8
  %12 = getelementptr inbounds nuw i8, ptr %0, i64 8
  %13 = load ptr, ptr %12, align 8
  %14 = getelementptr inbounds nuw i8, ptr %0, i64 16
  %15 = load ptr, ptr %14, align 8
  %16 = getelementptr inbounds nuw i8, ptr %0, i64 24
  %17 = load i8, ptr %16, align 8, !range !4, !noundef !5
  %18 = trunc nuw i8 %17 to i1
  %19 = getelementptr inbounds nuw i8, ptr %0, i64 25
  %20 = load i8, ptr %19, align 1, !range !4, !noundef !5
  %21 = trunc nuw i8 %20 to i1
  %22 = tail call ptr @tuplesort_begin_index_btree(ptr noundef %13, ptr noundef %15, i1 noundef zeroext %18, i1 noundef zeroext %21, i32 noundef %5, ptr noundef nonnull %9, i32 noundef 0) #10
  store ptr %22, ptr %0, align 8
  %.not = icmp eq ptr %1, null
  br i1 %.not, label %32, label %23

23:                                               ; preds = %7
  %24 = tail call ptr @palloc0(i64 noundef 16) #10
  store i8 1, ptr %24, align 8
  %25 = getelementptr inbounds nuw i8, ptr %24, i64 4
  store i32 -1, ptr %25, align 4
  %26 = getelementptr inbounds nuw i8, ptr %24, i64 8
  store ptr %4, ptr %26, align 8
  %27 = load ptr, ptr %12, align 8
  %28 = load ptr, ptr %14, align 8
  %29 = load i32, ptr @work_mem, align 4
  %30 = tail call i32 @llvm.smin.i32(i32 %5, i32 %29)
  %31 = tail call ptr @tuplesort_begin_index_btree(ptr noundef %27, ptr noundef %28, i1 noundef zeroext false, i1 noundef zeroext false, i32 noundef %30, ptr noundef nonnull %24, i32 noundef 0) #10
  store ptr %31, ptr %1, align 8
  br label %32

32:                                               ; preds = %23, %7
  %33 = getelementptr inbounds nuw i8, ptr %2, i64 8
  %34 = load i8, ptr %33, align 8, !range !4, !noundef !5
  store i8 %34, ptr %8, align 8
  %35 = getelementptr inbounds nuw i8, ptr %2, i64 9
  %36 = load i8, ptr %35, align 1, !range !4, !noundef !5
  %37 = getelementptr inbounds nuw i8, ptr %8, i64 1
  store i8 %36, ptr %37, align 1
  %38 = getelementptr inbounds nuw i8, ptr %8, i64 2
  store i8 0, ptr %38, align 2
  %39 = load ptr, ptr %12, align 8
  %40 = getelementptr inbounds nuw i8, ptr %8, i64 8
  store ptr %39, ptr %40, align 8
  %41 = getelementptr inbounds nuw i8, ptr %8, i64 16
  store ptr %0, ptr %41, align 8
  %42 = getelementptr inbounds nuw i8, ptr %8, i64 24
  store ptr %1, ptr %42, align 8
  %43 = getelementptr inbounds nuw i8, ptr %8, i64 32
  call void @llvm.memset.p0.i64(ptr noundef nonnull align 8 dereferenceable(16) %43, i8 0, i64 16, i1 false)
  %44 = load ptr, ptr %14, align 8
  %45 = tail call ptr @BuildIndexInfo(ptr noundef %44) #10
  %46 = getelementptr inbounds nuw i8, ptr %2, i64 10
  %47 = load i8, ptr %46, align 2, !range !4, !noundef !5
  %48 = getelementptr inbounds nuw i8, ptr %45, i64 165
  store i8 %47, ptr %48, align 1
  %49 = load ptr, ptr %12, align 8
  %50 = getelementptr inbounds nuw i8, ptr %2, i64 96
  %51 = tail call ptr @table_beginscan_parallel(ptr noundef %49, ptr noundef nonnull %50) #10
  %52 = load ptr, ptr %12, align 8
  %53 = load ptr, ptr %14, align 8
  %54 = getelementptr inbounds nuw i8, ptr %52, i64 320
  %55 = load ptr, ptr %54, align 8
  %56 = getelementptr inbounds nuw i8, ptr %55, i64 280
  %57 = load ptr, ptr %56, align 8
  %58 = call double %57(ptr noundef %52, ptr noundef %53, ptr noundef %45, i1 noundef zeroext true, i1 noundef zeroext false, i1 noundef zeroext %6, i32 noundef 0, i32 noundef -1, ptr noundef nonnull @_bt_build_callback, ptr noundef nonnull %8, ptr noundef %51) #10
  br i1 %6, label %59, label %.thread

59:                                               ; preds = %32
  call void @pgstat_progress_update_param(i32 noundef 10, i64 noundef 3) #10
  %60 = load ptr, ptr %0, align 8
  call void @tuplesort_performsort(ptr noundef %60) #10
  br i1 %.not, label %64, label %62

.thread:                                          ; preds = %32
  %61 = load ptr, ptr %0, align 8
  call void @tuplesort_performsort(ptr noundef %61) #10
  br i1 %.not, label %64, label %.thread56

62:                                               ; preds = %59
  call void @pgstat_progress_update_param(i32 noundef 10, i64 noundef 4) #10
  br label %.thread56

.thread56:                                        ; preds = %.thread, %62
  %63 = load ptr, ptr %1, align 8
  call void @tuplesort_performsort(ptr noundef %63) #10
  br label %64

64:                                               ; preds = %.thread, %.thread56, %59
  %65 = getelementptr inbounds nuw i8, ptr %2, i64 36
  %66 = call i8 asm sideeffect "\09lock\09\09\09\0A\09xchgb\09$0,$1\09\0A", "=q,=*m,0,*m,~{memory},~{cc},~{dirflag},~{fpsr},~{flags}"(ptr nonnull elementtype(i8) %65, i8 1, ptr nonnull elementtype(i8) %65) #10, !srcloc !7
  %.not55 = icmp eq i8 %66, 0
  br i1 %.not55, label %69, label %67

67:                                               ; preds = %64
  %68 = call i32 @s_lock(ptr noundef nonnull %65, ptr noundef nonnull @.str.1, i32 noundef 1952, ptr noundef nonnull @__func__._bt_parallel_scan_and_sort) #10
  br label %69

69:                                               ; preds = %64, %67
  %70 = getelementptr inbounds nuw i8, ptr %2, i64 40
  %71 = load i32, ptr %70, align 8
  %72 = add i32 %71, 1
  store i32 %72, ptr %70, align 8
  %73 = getelementptr inbounds nuw i8, ptr %2, i64 48
  %74 = load double, ptr %73, align 8
  %75 = fadd double %58, %74
  store double %75, ptr %73, align 8
  %76 = load i8, ptr %38, align 2, !range !4, !noundef !5
  %77 = trunc nuw i8 %76 to i1
  br i1 %77, label %78, label %80

78:                                               ; preds = %69
  %79 = getelementptr inbounds nuw i8, ptr %2, i64 56
  store i8 1, ptr %79, align 8
  br label %80

80:                                               ; preds = %78, %69
  %81 = load double, ptr %43, align 8
  %82 = getelementptr inbounds nuw i8, ptr %2, i64 64
  %83 = load double, ptr %82, align 8
  %84 = fadd double %81, %83
  store double %84, ptr %82, align 8
  %85 = getelementptr inbounds nuw i8, ptr %45, i64 166
  %86 = load i8, ptr %85, align 2, !range !4, !noundef !5
  %87 = trunc nuw i8 %86 to i1
  br i1 %87, label %88, label %90

88:                                               ; preds = %80
  %89 = getelementptr inbounds nuw i8, ptr %2, i64 72
  store i8 1, ptr %89, align 8
  br label %90

90:                                               ; preds = %80, %88
  call void asm sideeffect "", "~{memory},~{dirflag},~{fpsr},~{flags}"() #10, !srcloc !17
  store i8 0, ptr %65, align 4
  %91 = getelementptr inbounds nuw i8, ptr %2, i64 24
  call void @ConditionVariableSignal(ptr noundef nonnull %91) #10
  %92 = load ptr, ptr %0, align 8
  call void @tuplesort_end(ptr noundef %92) #10
  br i1 %.not, label %95, label %93

93:                                               ; preds = %90
  %94 = load ptr, ptr %1, align 8
  call void @tuplesort_end(ptr noundef %94) #10
  br label %95

95:                                               ; preds = %93, %90
  call void @llvm.lifetime.end.p0(i64 48, ptr nonnull %8) #10
  ret void
}